target datalayout = "e-m:e-p270:32:32-p271:32:32-p272:64:64-i64:64-i128:128-f80:128-n8:16:32:64-S128"
target triple = "x86_64-pc-linux-gnu"

%"struct.std::once_flag" = type { i32 }
%"class.duckdb_re2::RE2::Options" = type <{ i64, i32, i8, i8, i8, i8, i8, i8, i8, i8, i8, i8, i8, i8 }>
%"class.duckdb_re2::RE2" = type <{ ptr, %"class.duckdb_re2::RE2::Options", ptr, ptr, ptr, ptr, i32, i32, %"class.std::__cxx11::basic_string", ptr, ptr, ptr, ptr, %"struct.std::once_flag", %"struct.std::once_flag", %"struct.std::once_flag", [4 x i8] }>
%"class.std::__cxx11::basic_string" = type { %"struct.std::__cxx11::basic_string<char>::_Alloc_hider", i64, %union.anon }
%"struct.std::__cxx11::basic_string<char>::_Alloc_hider" = type { ptr }
%union.anon = type { i64, [8 x i8] }

; Function Attrs: mustprogress uwtable
define hidden noundef i32 @_ZNK10duckdb_re23RE213ProgramFanoutEPSt6vectorIiSaIiEE(ptr noundef nonnull align 8 dereferenceable(148) %0, ptr noundef %1) #1 align 2 {
  %3 = alloca i32, align 4
  %4 = alloca ptr, align 8
  %5 = alloca ptr, align 8
  store ptr %0, ptr %4, align 8, !tbaa !29
  store ptr %1, ptr %5, align 8, !tbaa !134
  %6 = load ptr, ptr %4, align 8
  %7 = getelementptr inbounds nuw %"class.duckdb_re2::RE2", ptr %6, i32 0, i32 9
  %8 = load ptr, ptr %7, align 8, !tbaa !55
  %9 = icmp eq ptr %8, null
  br i1 %9, label %10, label %11

10:                                               ; preds = %2
  store i32 -1, ptr %3, align 4
  br label %16

11:                                               ; preds = %2
  %12 = getelementptr inbounds nuw %"class.duckdb_re2::RE2", ptr %6, i32 0, i32 9
  %13 = load ptr, ptr %12, align 8, !tbaa !55
  %14 = load ptr, ptr %5, align 8, !tbaa !134
  %15 = call noundef i32 @_ZN10duckdb_re2L6FanoutEPNS_4ProgEPSt6vectorIiSaIiEE(ptr noundef %13, ptr noundef %14)
  store i32 %15, ptr %3, align 4
  br label %16

16:                                               ; preds = %11, %10
  %17 = load i32, ptr %3, align 4
  ret i32 %17
}