; Function Attrs: mustprogress uwtable
define hidden noundef range(i32 -1, 33) i32 @_ZNK10duckdb_re23RE213ProgramFanoutEPSt6vectorIiSaIiEE(ptr noundef nonnull readonly align 8 captures(none) dereferenceable(148) %0, ptr noundef %1) local_unnamed_addr #2 align 2 {
  %3 = getelementptr inbounds nuw i8, ptr %0, i64 104
  %4 = load ptr, ptr %3, align 8, !tbaa !74
  %5 = icmp eq ptr %4, null
  br i1 %5, label %8, label %6

6:                                                ; preds = %2
  %7 = tail call fastcc noundef i32 @_ZN10duckdb_re2L6FanoutEPNS_4ProgEPSt6vectorIiSaIiEE(ptr noundef %4, ptr noundef %1)
  br label %8

8:                                                ; preds = %2, %6
  %.0 = phi i32 [ %7, %6 ], [ -1, %2 ]
  ret i32 %.0
}